; Function Attrs: mustprogress nofree norecurse nosync nounwind ssp willreturn memory(argmem: readwrite) uwtable
define internal void @_ZN6open3d4core6kernelL25CPULogicalOrElementKernelIffEEvPKvS4_Pv(ptr noundef readonly captures(none) %0, ptr noundef readonly captures(none) %1, ptr noundef writeonly captures(none) initializes((0, 4)) %2) #15 {
  %4 = load float, ptr %0, align 4, !tbaa !685
  %5 = fcmp une float %4, 0.000000e+00
  br i1 %5, label %10, label %6

6:                                                ; preds = %3
  %7 = load float, ptr %1, align 4, !tbaa !685
  %8 = fcmp une float %7, 0.000000e+00
  %9 = uitofp i1 %8 to float
  br label %10

10:                                               ; preds = %6, %3
  %11 = phi float [ 1.000000e+00, %3 ], [ %9, %6 ]
  store float %11, ptr %2, align 4, !tbaa !685
  ret void
}